; Function Attrs: mustprogress uwtable
define internal fastcc void @_ZL14cross_corr_lowiPKfS0_PfP7gmx_fft(i32 noundef %0, ptr noundef readonly captures(none) %1, ptr noundef readonly captures(none) %2, ptr noundef writeonly captures(none) %3, ptr noundef %4) unnamed_addr #0 {
  %6 = shl nsw i32 %0, 1
  %7 = sext i32 %6 to i64
  %8 = tail call noundef ptr @_Z11save_callocPKcS0_imm(ptr noundef nonnull @.str, ptr noundef nonnull @.str.1, i32 noundef 92, i64 noundef range(i64 -2147483648, 2147483648) %7, i64 noundef 8)
  %9 = tail call noundef ptr @_Z11save_callocPKcS0_imm(ptr noundef nonnull @.str.2, ptr noundef nonnull @.str.1, i32 noundef 93, i64 noundef range(i64 -2147483648, 2147483648) %7, i64 noundef 8)
  %10 = icmp sgt i32 %0, 0
  br i1 %10, label %.lr.ph.preheader, label %.preheader

.lr.ph.preheader:                                 ; preds = %5
  %wide.trip.count = zext nneg i32 %0 to i64
  br label %.lr.ph

.preheader:                                       ; preds = %.lr.ph, %5
  %.0.lcssa = phi i32 [ 0, %5 ], [ %0, %.lr.ph ]
  %11 = icmp slt i32 %.0.lcssa, %6
  br i1 %11, label %.lr.ph52.preheader, label %._crit_edge

.lr.ph52.preheader:                               ; preds = %.preheader
  %12 = zext nneg i32 %.0.lcssa to i64
  %wide.trip.count65 = zext nneg i32 %6 to i64
  br label %.lr.ph52

.lr.ph:                                           ; preds = %.lr.ph.preheader, %.lr.ph
  %indvars.iv = phi i64 [ 0, %.lr.ph.preheader ], [ %indvars.iv.next, %.lr.ph ]
  %13 = getelementptr inbounds nuw float, ptr %1, i64 %indvars.iv
  %14 = load float, ptr %13, align 4, !tbaa !9
  %15 = getelementptr inbounds nuw %struct.t_complex, ptr %8, i64 %indvars.iv
  store float %14, ptr %15, align 4, !tbaa !11
  %16 = getelementptr inbounds nuw %struct.t_complex, ptr %8, i64 %indvars.iv, i32 1
  store float 0.000000e+00, ptr %16, align 4, !tbaa !13
  %17 = getelementptr inbounds nuw float, ptr %2, i64 %indvars.iv
  %18 = load float, ptr %17, align 4, !tbaa !9
  %19 = getelementptr inbounds nuw %struct.t_complex, ptr %9, i64 %indvars.iv
  store float %18, ptr %19, align 4, !tbaa !11
  %20 = getelementptr inbounds nuw %struct.t_complex, ptr %9, i64 %indvars.iv, i32 1
  store float 0.000000e+00, ptr %20, align 4, !tbaa !13
  %indvars.iv.next = add nuw nsw i64 %indvars.iv, 1
  %exitcond.not = icmp eq i64 %indvars.iv.next, %wide.trip.count
  br i1 %exitcond.not, label %.preheader, label %.lr.ph, !llvm.loop !14

.lr.ph52:                                         ; preds = %.lr.ph52.preheader, %.lr.ph52
  %indvars.iv62 = phi i64 [ %12, %.lr.ph52.preheader ], [ %indvars.iv.next63, %.lr.ph52 ]
  %21 = getelementptr inbounds nuw %struct.t_complex, ptr %8, i64 %indvars.iv62
  store float 0.000000e+00, ptr %21, align 4, !tbaa !11
  %22 = getelementptr inbounds nuw %struct.t_complex, ptr %8, i64 %indvars.iv62, i32 1
  store float 0.000000e+00, ptr %22, align 4, !tbaa !13
  %23 = getelementptr inbounds nuw %struct.t_complex, ptr %9, i64 %indvars.iv62
  store float 0.000000e+00, ptr %23, align 4, !tbaa !11
  %24 = getelementptr inbounds nuw %struct.t_complex, ptr %9, i64 %indvars.iv62, i32 1
  store float 0.000000e+00, ptr %24, align 4, !tbaa !13
  %indvars.iv.next63 = add nuw nsw i64 %indvars.iv62, 1
  %exitcond66.not = icmp eq i64 %indvars.iv.next63, %wide.trip.count65
  br i1 %exitcond66.not, label %._crit_edge, label %.lr.ph52, !llvm.loop !16

._crit_edge:                                      ; preds = %.lr.ph52, %.preheader
  %25 = tail call noundef i32 @_Z10gmx_fft_1dP7gmx_fft17gmx_fft_directionPvS2_(ptr noundef %4, i32 noundef 0, ptr noundef %8, ptr noundef %8)
  %26 = tail call noundef i32 @_Z10gmx_fft_1dP7gmx_fft17gmx_fft_directionPvS2_(ptr noundef %4, i32 noundef 0, ptr noundef %9, ptr noundef %9)
  br i1 %10, label %.lr.ph55, label %._crit_edge56

.lr.ph55:                                         ; preds = %._crit_edge
  %27 = sitofp i32 %6 to float
  %smax = tail call i32 @llvm.smax.i32(i32 %6, i32 1)
  %wide.trip.count70 = zext nneg i32 %smax to i64
  br label %28

28:                                               ; preds = %.lr.ph55, %28
  %indvars.iv67 = phi i64 [ 0, %.lr.ph55 ], [ %indvars.iv.next68, %28 ]
  %29 = getelementptr inbounds nuw %struct.t_complex, ptr %8, i64 %indvars.iv67
  %30 = getelementptr inbounds nuw %struct.t_complex, ptr %9, i64 %indvars.iv67
  %.val = load float, ptr %30, align 4, !tbaa !11
  %31 = getelementptr i8, ptr %30, i64 4
  %.val37 = load float, ptr %31, align 4, !tbaa !13
  %32 = load float, ptr %29, align 4, !tbaa !11
  %33 = getelementptr inbounds nuw i8, ptr %29, i64 4
  %34 = load float, ptr %33, align 4, !tbaa !13
  %35 = fmul float %.val37, %34
  %36 = tail call float @llvm.fmuladd.f32(float %32, float %.val, float %35)
  %37 = fneg float %.val37
  %38 = fmul float %.val, %34
  %39 = tail call float @llvm.fmuladd.f32(float %32, float %37, float %38)
  store float %39, ptr %33, align 4, !tbaa !13
  %40 = fdiv float %36, %27
  store float %40, ptr %29, align 4, !tbaa !11
  %indvars.iv.next68 = add nuw nsw i64 %indvars.iv67, 1
  %exitcond71.not = icmp eq i64 %indvars.iv.next68, %wide.trip.count70
  br i1 %exitcond71.not, label %.lr.ph59.preheader, label %28, !llvm.loop !17

._crit_edge56:                                    ; preds = %._crit_edge
  %41 = tail call noundef i32 @_Z10gmx_fft_1dP7gmx_fft17gmx_fft_directionPvS2_(ptr noundef %4, i32 noundef 1, ptr noundef %8, ptr noundef %8)
  br label %._crit_edge60

.lr.ph59.preheader:                               ; preds = %28
  %42 = tail call noundef i32 @_Z10gmx_fft_1dP7gmx_fft17gmx_fft_directionPvS2_(ptr noundef %4, i32 noundef 1, ptr noundef nonnull %8, ptr noundef nonnull %8)
  %wide.trip.count75 = zext nneg i32 %0 to i64
  br label %.lr.ph59

.lr.ph59:                                         ; preds = %.lr.ph59.preheader, %.lr.ph59
  %indvars.iv72 = phi i64 [ 0, %.lr.ph59.preheader ], [ %indvars.iv.next73, %.lr.ph59 ]
  %43 = getelementptr inbounds nuw %struct.t_complex, ptr %8, i64 %indvars.iv72
  %44 = load float, ptr %43, align 4, !tbaa !11
  %45 = getelementptr inbounds nuw float, ptr %3, i64 %indvars.iv72
  store float %44, ptr %45, align 4, !tbaa !9
  %indvars.iv.next73 = add nuw nsw i64 %indvars.iv72, 1
  %exitcond76.not = icmp eq i64 %indvars.iv.next73, %wide.trip.count75
  br i1 %exitcond76.not, label %._crit_edge60, label %.lr.ph59, !llvm.loop !18

._crit_edge60:                                    ; preds = %.lr.ph59, %._crit_edge56
  tail call void @_Z9save_freePKcS0_iPv(ptr noundef nonnull @.str, ptr noundef nonnull @.str.1, i32 noundef 124, ptr noundef %8)
  tail call void @_Z9save_freePKcS0_iPv(ptr noundef nonnull @.str.2, ptr noundef nonnull @.str.1, i32 noundef 125, ptr noundef %9)
  ret void
}